; Function Attrs: nounwind uwtable
define void @Mf_ManDumpCnf(ptr noundef %0, ptr noundef %1, i32 noundef %2, i32 noundef %3, i32 noundef %4, i32 noundef %5) local_unnamed_addr #0 {
  %7 = alloca %struct.timespec, align 8
  %8 = alloca ptr, align 8
  %9 = alloca %struct.Jf_Par_t_, align 8
  %10 = alloca %struct.timespec, align 8
  call void @llvm.lifetime.start.p0(i64 16, ptr nonnull %10) #29
  %11 = call i32 @clock_gettime(i32 noundef 1, ptr noundef nonnull %10) #29
  %12 = icmp slt i32 %11, 0
  br i1 %12, label %Abc_Clock.exit, label %13

13:                                               ; preds = %6
  %14 = load i64, ptr %10, align 8, !tbaa !248
  %.neg13 = mul i64 %14, -1000000
  %15 = getelementptr inbounds nuw i8, ptr %10, i64 8
  %16 = load i64, ptr %15, align 8, !tbaa !250
  %.neg = sdiv i64 %16, -1000
  %.neg14 = add i64 %.neg, %.neg13
  br label %Abc_Clock.exit

Abc_Clock.exit:                                   ; preds = %6, %13
  %.0.i.neg = phi i64 [ %.neg14, %13 ], [ 1, %6 ]
  call void @llvm.lifetime.end.p0(i64 16, ptr nonnull %10) #29
  call void @llvm.lifetime.start.p0(i64 8, ptr nonnull %8) #29
  call void @llvm.lifetime.start.p0(i64 264, ptr nonnull %9) #29
  %17 = getelementptr inbounds nuw i8, ptr %9, i64 32
  call void @llvm.memset.p0.i64(ptr noundef nonnull align 8 dereferenceable(264) %17, i8 0, i64 232, i1 false)
  %18 = getelementptr inbounds nuw i8, ptr %9, i64 4
  store i32 8, ptr %18, align 4, !tbaa !135
  %19 = getelementptr inbounds nuw i8, ptr %9, i64 8
  store i32 0, ptr %19, align 8, !tbaa !258
  %20 = getelementptr inbounds nuw i8, ptr %9, i64 12
  store i32 2, ptr %20, align 4, !tbaa !259
  %21 = getelementptr inbounds nuw i8, ptr %9, i64 16
  store i32 1, ptr %21, align 8, !tbaa !260
  %22 = getelementptr inbounds nuw i8, ptr %9, i64 20
  store i32 0, ptr %22, align 4, !tbaa !207
  %23 = getelementptr inbounds nuw i8, ptr %9, i64 24
  store i32 3, ptr %23, align 8, !tbaa !261
  %24 = getelementptr inbounds nuw i8, ptr %9, i64 28
  store i32 1, ptr %24, align 4, !tbaa !154
  %25 = getelementptr inbounds nuw i8, ptr %9, i64 36
  store i32 5, ptr %25, align 4, !tbaa !262
  %26 = getelementptr inbounds nuw i8, ptr %9, i64 52
  store i32 -1, ptr %26, align 4, !tbaa !206
  %27 = getelementptr inbounds nuw i8, ptr %9, i64 72
  store i32 1, ptr %27, align 8, !tbaa !153
  %28 = getelementptr inbounds nuw i8, ptr %9, i64 84
  %29 = getelementptr inbounds nuw i8, ptr %9, i64 96
  %30 = getelementptr inbounds nuw i8, ptr %9, i64 144
  store i32 10, ptr %30, align 8, !tbaa !266
  %31 = getelementptr inbounds nuw i8, ptr %9, i64 148
  store i32 16, ptr %31, align 4, !tbaa !267
  store i32 1, ptr %29, align 8, !tbaa !151
  %.not.i = icmp eq i32 %3, 0
  %32 = zext i1 %.not.i to i32
  store i32 %32, ptr %28, align 4, !tbaa !263
  store i32 %2, ptr %9, align 8, !tbaa !87
  %33 = getelementptr inbounds nuw i8, ptr %9, i64 104
  store i32 %3, ptr %33, align 8, !tbaa !192
  %34 = getelementptr inbounds nuw i8, ptr %9, i64 108
  store i32 %4, ptr %34, align 4, !tbaa !301
  %35 = getelementptr inbounds nuw i8, ptr %9, i64 136
  store i32 %5, ptr %35, align 8, !tbaa !268
  %36 = call ptr @Mf_ManPerformMapping(ptr noundef %0, ptr noundef nonnull %9)
  store ptr %36, ptr %8, align 8, !tbaa !303
  call void @Gia_ManStopP(ptr noundef nonnull %8) #29
  %37 = getelementptr inbounds nuw i8, ptr %0, i64 768
  %38 = load ptr, ptr %37, align 8, !tbaa !302
  call void @llvm.lifetime.end.p0(i64 264, ptr nonnull %9) #29
  call void @llvm.lifetime.end.p0(i64 8, ptr nonnull %8) #29
  call void @Cnf_DataWriteIntoFile(ptr noundef %38, ptr noundef %1, i32 noundef 0, ptr noundef null, ptr noundef null) #29
  %39 = getelementptr inbounds nuw i8, ptr %38, i64 8
  %40 = load i32, ptr %39, align 8, !tbaa !113
  %41 = getelementptr inbounds nuw i8, ptr %38, i64 16
  %42 = load i32, ptr %41, align 8, !tbaa !115
  %43 = getelementptr inbounds nuw i8, ptr %38, i64 12
  %44 = load i32, ptr %43, align 4, !tbaa !114
  %45 = call i32 (ptr, ...) @printf(ptr noundef nonnull dereferenceable(1) @.str.55, i32 noundef %40, i32 noundef %42, i32 noundef %44)
  call void @llvm.lifetime.start.p0(i64 16, ptr nonnull %7) #29
  %46 = call i32 @clock_gettime(i32 noundef 1, ptr noundef nonnull %7) #29
  %47 = icmp slt i32 %46, 0
  br i1 %47, label %Abc_Clock.exit12, label %48

48:                                               ; preds = %Abc_Clock.exit
  %49 = load i64, ptr %7, align 8, !tbaa !248
  %50 = mul nsw i64 %49, 1000000
  %51 = getelementptr inbounds nuw i8, ptr %7, i64 8
  %52 = load i64, ptr %51, align 8, !tbaa !250
  %53 = sdiv i64 %52, 1000
  %54 = add nsw i64 %53, %50
  br label %Abc_Clock.exit12

Abc_Clock.exit12:                                 ; preds = %Abc_Clock.exit, %48
  %.0.i11 = phi i64 [ %54, %48 ], [ -1, %Abc_Clock.exit ]
  call void @llvm.lifetime.end.p0(i64 16, ptr nonnull %7) #29
  %55 = add i64 %.0.i11, %.0.i.neg
  call void (i32, ptr, ...) @Abc_Print(i32 noundef 1, ptr noundef nonnull @.str.60, ptr noundef nonnull @.str.15)
  %56 = sitofp i64 %55 to double
  %57 = fdiv double %56, 1.000000e+06
  call void (i32, ptr, ...) @Abc_Print(i32 noundef 1, ptr noundef nonnull @.str.61, double noundef %57)
  call void @Cnf_DataFree(ptr noundef nonnull %38) #29
  ret void
}